; Function Attrs: nounwind uwtable
define internal void @HIDAPI_DriverXboxOne_FreeDevice(ptr noundef readonly captures(none) %0) #0 {
  %2 = getelementptr inbounds nuw i8, ptr %0, i64 112
  %3 = load ptr, ptr %2, align 8
  %4 = getelementptr inbounds nuw i8, ptr %3, i64 136
  %5 = load ptr, ptr %4, align 8
  %.not.i = icmp eq ptr %5, null
  br i1 %.not.i, label %HIDAPI_GIP_DestroyChunkBuffer.exit, label %6

6:                                                ; preds = %1
  tail call void @SDL_free_REAL(ptr noundef nonnull %5) #9
  store ptr null, ptr %4, align 8
  %7 = getelementptr inbounds nuw i8, ptr %3, i64 144
  store i32 0, ptr %7, align 8
  br label %HIDAPI_GIP_DestroyChunkBuffer.exit

HIDAPI_GIP_DestroyChunkBuffer.exit:               ; preds = %1, %6
  ret void
}